target datalayout = "e-m:e-p270:32:32-p271:32:32-p272:64:64-i64:64-i128:128-f80:128-n8:16:32:64-S128"
target triple = "x86_64-pc-linux-gnu"

%"class.icu_77::ReplaceableGlue" = type { %"class.icu_77::Replaceable", ptr, ptr }
%"class.icu_77::Replaceable" = type { %"class.icu_77::UObject" }
%"class.icu_77::UObject" = type { ptr }

@_ZN6icu_7715ReplaceableGlueC1EPPvPK21UReplaceableCallbacks = unnamed_addr alias void (ptr, ptr, ptr), ptr @_ZN6icu_7715ReplaceableGlueC2EPPvPK21UReplaceableCallbacks
@_ZN6icu_7715ReplaceableGlueD1Ev = unnamed_addr alias void (ptr), ptr @_ZN6icu_7715ReplaceableGlueD2Ev

; Function Attrs: inlinehint mustprogress nounwind uwtable
define internal noundef signext i8 @_ZL9U_FAILURE10UErrorCode(i32 noundef %0) #2 {
  %2 = alloca i32, align 4
  store i32 %0, ptr %2, align 4, !tbaa !40
  %3 = load i32, ptr %2, align 4, !tbaa !40
  %4 = icmp sgt i32 %3, 0
  %5 = zext i1 %4 to i8
  ret i8 %5
}

; Function Attrs: mustprogress uwtable
define void @utrans_trans_77(ptr noundef %0, ptr noundef %1, ptr noundef %2, i32 noundef %3, ptr noundef %4, ptr noundef %5) #1 personality ptr @__gxx_personality_v0 {
  %7 = alloca ptr, align 8
  %8 = alloca ptr, align 8
  %9 = alloca ptr, align 8
  %10 = alloca i32, align 4
  %11 = alloca ptr, align 8
  %12 = alloca ptr, align 8
  %13 = alloca %"class.icu_77::ReplaceableGlue", align 8
  %14 = alloca ptr, align 8
  %15 = alloca i32, align 4
  store ptr %0, ptr %7, align 8, !tbaa !8
  store ptr %1, ptr %8, align 8, !tbaa !8
  store ptr %2, ptr %9, align 8, !tbaa !10
  store i32 %3, ptr %10, align 4, !tbaa !23
  store ptr %4, ptr %11, align 8, !tbaa !51
  store ptr %5, ptr %12, align 8, !tbaa !39
  %16 = load ptr, ptr %12, align 8, !tbaa !39
  %17 = icmp eq ptr %16, null
  br i1 %17, label %23, label %18

18:                                               ; preds = %6
  %19 = load ptr, ptr %12, align 8, !tbaa !39
  %20 = load i32, ptr %19, align 4, !tbaa !40
  %21 = call noundef signext i8 @_ZL9U_FAILURE10UErrorCode(i32 noundef %20)
  %22 = icmp ne i8 %21, 0
  br i1 %22, label %23, label %24

23:                                               ; preds = %18, %6
  br label %51

24:                                               ; preds = %18
  %25 = load ptr, ptr %7, align 8, !tbaa !8
  %26 = icmp eq ptr %25, null
  br i1 %26, label %36, label %27

27:                                               ; preds = %24
  %28 = load ptr, ptr %8, align 8, !tbaa !8
  %29 = icmp eq ptr %28, null
  br i1 %29, label %36, label %30

30:                                               ; preds = %27
  %31 = load ptr, ptr %9, align 8, !tbaa !10
  %32 = icmp eq ptr %31, null
  br i1 %32, label %36, label %33

33:                                               ; preds = %30
  %34 = load ptr, ptr %11, align 8, !tbaa !51
  %35 = icmp eq ptr %34, null
  br i1 %35, label %36, label %38

36:                                               ; preds = %33, %30, %27, %24
  %37 = load ptr, ptr %12, align 8, !tbaa !39
  store i32 1, ptr %37, align 4, !tbaa !40
  br label %51

38:                                               ; preds = %33
  call void @llvm.lifetime.start.p0(i64 24, ptr %13) #9
  %39 = load ptr, ptr %8, align 8, !tbaa !8
  %40 = load ptr, ptr %9, align 8, !tbaa !10
  call void @_ZN6icu_7715ReplaceableGlueC1EPPvPK21UReplaceableCallbacks(ptr noundef nonnull align 8 dereferenceable(24) %13, ptr noundef %39, ptr noundef %40)
  %41 = load ptr, ptr %7, align 8, !tbaa !8
  %42 = load i32, ptr %10, align 4, !tbaa !23
  %43 = load ptr, ptr %11, align 8, !tbaa !51
  %44 = load i32, ptr %43, align 4, !tbaa !23
  %45 = load ptr, ptr %41, align 8, !tbaa !12
  %46 = getelementptr inbounds ptr, ptr %45, i64 4
  %47 = load ptr, ptr %46, align 8
  %48 = invoke noundef i32 %47(ptr noundef nonnull align 8 dereferenceable(84) %41, ptr noundef nonnull align 8 dereferenceable(8) %13, i32 noundef %42, i32 noundef %44)
          to label %49 unwind label %52

49:                                               ; preds = %38
  %50 = load ptr, ptr %11, align 8, !tbaa !51
  store i32 %48, ptr %50, align 4, !tbaa !23
  call void @_ZN6icu_7715ReplaceableGlueD1Ev(ptr noundef nonnull align 8 dereferenceable(24) %13) #9
  call void @llvm.lifetime.end.p0(i64 24, ptr %13) #9
  br label %51

51:                                               ; preds = %49, %36, %23
  ret void

52:                                               ; preds = %38
  %53 = landingpad { ptr, i32 }
          cleanup
  %54 = extractvalue { ptr, i32 } %53, 0
  store ptr %54, ptr %14, align 8
  %55 = extractvalue { ptr, i32 } %53, 1
  store i32 %55, ptr %15, align 4
  call void @_ZN6icu_7715ReplaceableGlueD1Ev(ptr noundef nonnull align 8 dereferenceable(24) %13) #9
  call void @llvm.lifetime.end.p0(i64 24, ptr %13) #9
  br label %56

56:                                               ; preds = %52
  %57 = load ptr, ptr %14, align 8
  %58 = load i32, ptr %15, align 4
  %59 = insertvalue { ptr, i32 } poison, ptr %57, 0
  %60 = insertvalue { ptr, i32 } %59, i32 %58, 1
  resume { ptr, i32 } %60
}