; Function Attrs: mustprogress uwtable
define void @utrans_trans_77(ptr noundef %0, ptr noundef %1, ptr noundef %2, i32 noundef %3, ptr noundef %4, ptr noundef %5) local_unnamed_addr #4 personality ptr @__gxx_personality_v0 {
  %7 = alloca %"class.icu_77::ReplaceableGlue", align 8
  %8 = icmp eq ptr %5, null
  br i1 %8, label %25, label %9

9:                                                ; preds = %6
  %10 = load i32, ptr %5, align 4, !tbaa !23
  %11 = icmp slt i32 %10, 1
  br i1 %11, label %12, label %25

12:                                               ; preds = %9
  %13 = icmp eq ptr %0, null
  %14 = icmp eq ptr %1, null
  %or.cond = or i1 %13, %14
  %15 = icmp eq ptr %2, null
  %or.cond3 = or i1 %or.cond, %15
  %16 = icmp eq ptr %4, null
  %or.cond5 = or i1 %or.cond3, %16
  br i1 %or.cond5, label %17, label %18

17:                                               ; preds = %12
  store i32 1, ptr %5, align 4, !tbaa !23
  br label %25

18:                                               ; preds = %12
  call void @llvm.lifetime.start.p0(i64 24, ptr nonnull %7) #10
  call void @_ZN6icu_7715ReplaceableGlueC1EPPvPK21UReplaceableCallbacks(ptr noundef nonnull align 8 dereferenceable(24) %7, ptr noundef nonnull %1, ptr noundef nonnull %2)
  %19 = load i32, ptr %4, align 4, !tbaa !29
  %20 = load ptr, ptr %0, align 8, !tbaa !3
  %21 = getelementptr inbounds nuw i8, ptr %20, i64 32
  %22 = load ptr, ptr %21, align 8
  %23 = invoke noundef i32 %22(ptr noundef nonnull align 8 dereferenceable(84) %0, ptr noundef nonnull align 8 dereferenceable(8) %7, i32 noundef %3, i32 noundef %19)
          to label %24 unwind label %26

24:                                               ; preds = %18
  store i32 %23, ptr %4, align 4, !tbaa !29
  call void @_ZN6icu_7715ReplaceableGlueD1Ev(ptr noundef nonnull align 8 dereferenceable(24) %7) #10
  call void @llvm.lifetime.end.p0(i64 24, ptr nonnull %7) #10
  br label %25

25:                                               ; preds = %6, %9, %24, %17
  ret void

26:                                               ; preds = %18
  %27 = landingpad { ptr, i32 }
          cleanup
  call void @_ZN6icu_7715ReplaceableGlueD1Ev(ptr noundef nonnull align 8 dereferenceable(24) %7) #10
  call void @llvm.lifetime.end.p0(i64 24, ptr nonnull %7) #10
  resume { ptr, i32 } %27
}